target datalayout = "e-m:e-p270:32:32-p271:32:32-p272:64:64-i64:64-i128:128-f80:128-n8:16:32:64-S128"
target triple = "x86_64-pc-linux-gnu"

%struct.pg_prng_state = type { i64, i64 }
%struct.ReservoirStateData = type { double, %struct.pg_prng_state }

@pg_global_prng_state = external global %struct.pg_prng_state, align 8
@oldrs_initialized = internal global i8 0, align 1
@oldrs = internal global %struct.ReservoirStateData zeroinitializer, align 8

; Function Attrs: nounwind uwtable
define dso_local double @sampler_random_fract(ptr noundef %0) #0 {
  %2 = alloca ptr, align 8
  %3 = alloca double, align 8
  store ptr %0, ptr %2, align 8
  call void @llvm.lifetime.start.p0(i64 8, ptr %3) #6
  br label %4

4:                                                ; preds = %7, %1
  %5 = load ptr, ptr %2, align 8
  %6 = call double @pg_prng_double(ptr noundef %5)
  store double %6, ptr %3, align 8
  br label %7

7:                                                ; preds = %4
  %8 = load double, ptr %3, align 8
  %9 = fcmp oeq double %8, 0.000000e+00
  %10 = zext i1 %9 to i32
  %11 = icmp ne i32 %10, 0
  %12 = zext i1 %11 to i32
  %13 = sext i32 %12 to i64
  %14 = call i64 @llvm.expect.i64(i64 %13, i64 0)
  %15 = icmp ne i64 %14, 0
  br i1 %15, label %4, label %16, !llvm.loop !6

16:                                               ; preds = %7
  %17 = load double, ptr %3, align 8
  call void @llvm.lifetime.end.p0(i64 8, ptr %3) #6
  ret double %17
}

; Function Attrs: nounwind uwtable
define dso_local void @sampler_random_init_state(i32 noundef %0, ptr noundef %1) #0 {
  %3 = alloca i32, align 4
  %4 = alloca ptr, align 8
  store i32 %0, ptr %3, align 4
  store ptr %1, ptr %4, align 8
  %5 = load ptr, ptr %4, align 8
  %6 = load i32, ptr %3, align 4
  %7 = zext i32 %6 to i64
  call void @pg_prng_seed(ptr noundef %5, i64 noundef %7)
  ret void
}

; Function Attrs: nounwind uwtable
define dso_local double @anl_init_selection_state(i32 noundef %0) #0 {
  %2 = alloca i32, align 4
  store i32 %0, ptr %2, align 4
  %3 = load i8, ptr @oldrs_initialized, align 1, !range !9, !noundef !10
  %4 = trunc i8 %3 to i1
  %5 = xor i1 %4, true
  %6 = zext i1 %5 to i32
  %7 = icmp ne i32 %6, 0
  %8 = zext i1 %7 to i32
  %9 = sext i32 %8 to i64
  %10 = call i64 @llvm.expect.i64(i64 %9, i64 0)
  %11 = icmp ne i64 %10, 0
  br i1 %11, label %12, label %14

12:                                               ; preds = %1
  %13 = call i32 @pg_prng_uint32(ptr noundef @pg_global_prng_state)
  call void @sampler_random_init_state(i32 noundef %13, ptr noundef getelementptr inbounds nuw (%struct.ReservoirStateData, ptr @oldrs, i32 0, i32 1))
  store i8 1, ptr @oldrs_initialized, align 1
  br label %14

14:                                               ; preds = %12, %1
  %15 = call double @sampler_random_fract(ptr noundef getelementptr inbounds nuw (%struct.ReservoirStateData, ptr @oldrs, i32 0, i32 1))
  %16 = call double @log(double noundef %15) #6
  %17 = fneg double %16
  %18 = load i32, ptr %2, align 4
  %19 = sitofp i32 %18 to double
  %20 = fdiv double %17, %19
  %21 = call double @exp(double noundef %20) #6
  ret double %21
}