; Function Attrs: nounwind uwtable
define dso_local double @anl_init_selection_state(i32 noundef %0) local_unnamed_addr #0 {
  %.b1 = load i1, ptr @oldrs_initialized, align 1
  br i1 %.b1, label %.preheader, label %2, !prof !10

2:                                                ; preds = %1
  %3 = tail call i32 @pg_prng_uint32(ptr noundef nonnull @pg_global_prng_state) #6
  %4 = zext i32 %3 to i64
  tail call void @pg_prng_seed(ptr noundef nonnull getelementptr inbounds nuw (i8, ptr @oldrs, i64 8), i64 noundef %4) #6
  store i1 true, ptr @oldrs_initialized, align 1
  br label %.preheader

.preheader:                                       ; preds = %2, %1
  br label %5

5:                                                ; preds = %.preheader, %5
  %6 = tail call double @pg_prng_double(ptr noundef nonnull getelementptr inbounds nuw (i8, ptr @oldrs, i64 8)) #6
  %7 = fcmp oeq double %6, 0.000000e+00
  br i1 %7, label %5, label %sampler_random_fract.exit, !prof !4, !llvm.loop !5

sampler_random_fract.exit:                        ; preds = %5
  %8 = tail call double @log(double noundef %6) #6
  %9 = fneg double %8
  %10 = sitofp i32 %0 to double
  %11 = fdiv double %9, %10
  %12 = tail call double @exp(double noundef %11) #6
  ret double %12
}